target datalayout = "e-m:e-p270:32:32-p271:32:32-p272:64:64-i64:64-i128:128-f80:128-n8:16:32:64-S128"
target triple = "x86_64-pc-linux-gnu"

%struct.jpeg_compress_struct = type { ptr, ptr, ptr, ptr, i32, i32, ptr, i32, i32, i32, i32, double, i32, i32, i32, ptr, [4 x ptr], [4 x ptr], [4 x ptr], [16 x i8], [16 x i8], [16 x i8], i32, ptr, i32, i32, i32, i32, i32, i32, i32, i32, i32, i8, i8, i8, i16, i16, i32, i32, i32, i32, i32, i32, i32, [4 x ptr], i32, i32, i32, [10 x i32], i32, i32, i32, i32, ptr, ptr, ptr, ptr, ptr, ptr, ptr, ptr, ptr, ptr, i32 }
%struct.jpeg_error_mgr = type { ptr, ptr, ptr, ptr, ptr, i32, %union.anon, i32, i64, ptr, i32, ptr, i32, i32 }
%union.anon = type { [8 x i32], [48 x i8] }
%struct.jpeg_marker_writer = type { ptr, ptr, ptr, ptr, ptr, ptr, ptr }

; Function Attrs: nounwind uwtable
define hidden void @jWrtMarker(ptr noundef %0, i32 noundef %1, ptr noundef %2, i32 noundef %3) #0 {
  %5 = alloca ptr, align 8
  %6 = alloca i32, align 4
  %7 = alloca ptr, align 8
  %8 = alloca i32, align 4
  %9 = alloca ptr, align 8
  store ptr %0, ptr %5, align 8
  store i32 %1, ptr %6, align 4
  store ptr %2, ptr %7, align 8
  store i32 %3, ptr %8, align 4
  %10 = load ptr, ptr %5, align 8
  %11 = getelementptr inbounds %struct.jpeg_compress_struct, ptr %10, i32 0, i32 39
  %12 = load i32, ptr %11, align 8
  %13 = icmp ne i32 %12, 0
  br i1 %13, label %29, label %14

14:                                               ; preds = %4
  %15 = load ptr, ptr %5, align 8
  %16 = getelementptr inbounds %struct.jpeg_compress_struct, ptr %15, i32 0, i32 5
  %17 = load i32, ptr %16, align 4
  %18 = icmp ne i32 %17, 101
  br i1 %18, label %19, label %48

19:                                               ; preds = %14
  %20 = load ptr, ptr %5, align 8
  %21 = getelementptr inbounds %struct.jpeg_compress_struct, ptr %20, i32 0, i32 5
  %22 = load i32, ptr %21, align 4
  %23 = icmp ne i32 %22, 102
  br i1 %23, label %24, label %48

24:                                               ; preds = %19
  %25 = load ptr, ptr %5, align 8
  %26 = getelementptr inbounds %struct.jpeg_compress_struct, ptr %25, i32 0, i32 5
  %27 = load i32, ptr %26, align 4
  %28 = icmp ne i32 %27, 103
  br i1 %28, label %29, label %48

29:                                               ; preds = %24, %4
  %30 = load ptr, ptr %5, align 8
  %31 = getelementptr inbounds %struct.jpeg_compress_struct, ptr %30, i32 0, i32 0
  %32 = load ptr, ptr %31, align 8
  %33 = getelementptr inbounds %struct.jpeg_error_mgr, ptr %32, i32 0, i32 5
  store i32 20, ptr %33, align 8
  %34 = load ptr, ptr %5, align 8
  %35 = getelementptr inbounds %struct.jpeg_compress_struct, ptr %34, i32 0, i32 5
  %36 = load i32, ptr %35, align 4
  %37 = load ptr, ptr %5, align 8
  %38 = getelementptr inbounds %struct.jpeg_compress_struct, ptr %37, i32 0, i32 0
  %39 = load ptr, ptr %38, align 8
  %40 = getelementptr inbounds %struct.jpeg_error_mgr, ptr %39, i32 0, i32 6
  %41 = getelementptr inbounds [8 x i32], ptr %40, i64 0, i64 0
  store i32 %36, ptr %41, align 4
  %42 = load ptr, ptr %5, align 8
  %43 = getelementptr inbounds %struct.jpeg_compress_struct, ptr %42, i32 0, i32 0
  %44 = load ptr, ptr %43, align 8
  %45 = getelementptr inbounds %struct.jpeg_error_mgr, ptr %44, i32 0, i32 0
  %46 = load ptr, ptr %45, align 8
  %47 = load ptr, ptr %5, align 8
  call void %46(ptr noundef %47)
  br label %48

48:                                               ; preds = %29, %24, %19, %14
  %49 = load ptr, ptr %5, align 8
  %50 = getelementptr inbounds %struct.jpeg_compress_struct, ptr %49, i32 0, i32 58
  %51 = load ptr, ptr %50, align 8
  %52 = getelementptr inbounds %struct.jpeg_marker_writer, ptr %51, i32 0, i32 5
  %53 = load ptr, ptr %52, align 8
  %54 = load ptr, ptr %5, align 8
  %55 = load i32, ptr %6, align 4
  %56 = load i32, ptr %8, align 4
  call void %53(ptr noundef %54, i32 noundef %55, i32 noundef %56)
  %57 = load ptr, ptr %5, align 8
  %58 = getelementptr inbounds %struct.jpeg_compress_struct, ptr %57, i32 0, i32 58
  %59 = load ptr, ptr %58, align 8
  %60 = getelementptr inbounds %struct.jpeg_marker_writer, ptr %59, i32 0, i32 6
  %61 = load ptr, ptr %60, align 8
  store ptr %61, ptr %9, align 8
  br label %62

62:                                               ; preds = %66, %48
  %63 = load i32, ptr %8, align 4
  %64 = add i32 %63, -1
  store i32 %64, ptr %8, align 4
  %65 = icmp ne i32 %63, 0
  br i1 %65, label %66, label %74

66:                                               ; preds = %62
  %67 = load ptr, ptr %9, align 8
  %68 = load ptr, ptr %5, align 8
  %69 = load ptr, ptr %7, align 8
  %70 = load i8, ptr %69, align 1
  %71 = zext i8 %70 to i32
  call void %67(ptr noundef %68, i32 noundef %71)
  %72 = load ptr, ptr %7, align 8
  %73 = getelementptr inbounds i8, ptr %72, i32 1
  store ptr %73, ptr %7, align 8
  br label %62, !llvm.loop !13

74:                                               ; preds = %62
  ret void
}