; Function Attrs: nounwind uwtable
define hidden void @jWrtMarker(ptr noundef %0, i32 noundef %1, ptr nocapture noundef readonly %2, i32 noundef %3) local_unnamed_addr #0 {
  %5 = getelementptr inbounds i8, ptr %0, i64 304
  %6 = load i32, ptr %5, align 8
  %.not = icmp eq i32 %6, 0
  br i1 %.not, label %7, label %10

7:                                                ; preds = %4
  %8 = getelementptr inbounds i8, ptr %0, i64 36
  %9 = load i32, ptr %8, align 4
  %.off = add i32 %9, -101
  %switch = icmp ult i32 %.off, 3
  br i1 %switch, label %19, label %10

10:                                               ; preds = %7, %4
  %11 = load ptr, ptr %0, align 8
  %12 = getelementptr inbounds i8, ptr %11, i64 40
  store i32 20, ptr %12, align 8
  %13 = getelementptr inbounds i8, ptr %0, i64 36
  %14 = load i32, ptr %13, align 4
  %15 = load ptr, ptr %0, align 8
  %16 = getelementptr inbounds i8, ptr %15, i64 44
  store i32 %14, ptr %16, align 4
  %17 = load ptr, ptr %0, align 8
  %18 = load ptr, ptr %17, align 8
  tail call void %18(ptr noundef nonnull %0) #4
  br label %19

19:                                               ; preds = %7, %10
  %20 = getelementptr inbounds i8, ptr %0, i64 464
  %21 = load ptr, ptr %20, align 8
  %22 = getelementptr inbounds i8, ptr %21, i64 40
  %23 = load ptr, ptr %22, align 8
  tail call void %23(ptr noundef nonnull %0, i32 noundef %1, i32 noundef %3) #4
  %24 = load ptr, ptr %20, align 8
  %25 = getelementptr inbounds i8, ptr %24, i64 48
  %26 = load ptr, ptr %25, align 8
  %.not2324 = icmp eq i32 %3, 0
  br i1 %.not2324, label %._crit_edge, label %.lr.ph

.lr.ph:                                           ; preds = %19, %.lr.ph
  %.026 = phi ptr [ %30, %.lr.ph ], [ %2, %19 ]
  %.01825 = phi i32 [ %27, %.lr.ph ], [ %3, %19 ]
  %27 = add i32 %.01825, -1
  %28 = load i8, ptr %.026, align 1
  %29 = zext i8 %28 to i32
  tail call void %26(ptr noundef %0, i32 noundef %29) #4
  %30 = getelementptr inbounds i8, ptr %.026, i64 1
  %.not23 = icmp eq i32 %27, 0
  br i1 %.not23, label %._crit_edge, label %.lr.ph, !llvm.loop !11

._crit_edge:                                      ; preds = %.lr.ph, %19
  ret void
}